(lp0
I-1
aI-1
aI-1
aI-1
aI-1
aI-1
aI-1
aI-1
aI-1
aI-1
aI-1
aI-1
aI-1
aI-1
aI-1
aI-1
aI-1
aI-1
aI-1
aI-1
aI-1
aI-1
aI-1
aI-1
aI-1
aI-1
aI-1
aI-1
aI-1
aI-1
aI-1
aI-1
aI-1
aI-1
aI-1
aI-1
aI-1
aI-1
aI-1
aI-1
aI-1
aI-1
aI-1
aI-1
aI-1
aI-1
aI-1
aI-1
aI-1
aI0
aI0
aI0
aI0
aI0
aI1
aI1
aI2
aI2
aI3
aI3
aI3
aI3
aI3
aI4
aI4
aI4
aI5
aI5
aI5
aI6
aI6
aI6
aI7
aI7
aI-1
aI8
aI8
aI8
aI8
aI8
aI9
aI9
aI9
aI10
aI10
aI10
aI10
aI10
aI10
aI10
aI10
aI10
aI10
aI10
aI10
aI10
aI11
aI11
aI11
aI11
aI12
aI12
aI12
aI12
aI-1
aI-1
aI-1
aI4
aI4
aI5
aI5
aI13
aI13
aI13
aI13
aI13
aI13
aI13
aI13
aI13
aI14
aI-1
aI-1
aI-1
aI-1
aI15
aI15
aI-1
aI-1
aI-1
aI-1
aI16
aI16
aI16
aI16
aI16
aI10
aI17
aI17
aI17
aI17
aI17
aI17
aI17
aI17
aI17
aI17
aI17
aI17
aI17
aI18
aI18
aI18
aI18
aI18
aI19
aI19
aI19
aI20
aI20
aI20
aI20
aI-1
aI-1
aI-1
aI-1
aI-1
aI-1
aI-1
aI-1
aI-1
aI-1
aI-1
aI-1
aI-1
aI-1
aI21
aI-1
aI22
aI22
aI22
aI22
aI23
aI23
aI13
aI13
aI13
aI14
aI14
aI-1
aI-1
aI-1
aI-1
aI-1
aI-1
aI-1
aI-1
aI-1
aI-1
aI-1
aI-1
aI-1
aI0
aI0
aI0
aI0
aI0
aI0
aI24
aI24
aI-1
aI-1
aI-1
aI-1
aI-1
aI25
aI25
aI25
aI25
aI25
aI25
aI25
aI25
aI25
aI25
aI25
aI25
aI26
aI26
aI26
aI27
aI27
aI27
aI27
aI27
aI27
aI27
aI2
aI2
aI3
aI3
aI3
aI3
aI3
aI3
aI3
aI3
aI3
aI3
aI3
aI3
aI3
aI3
aI3
aI3
aI3
aI3
aI3
aI3
aI28
aI28
aI28
aI-1
aI-1
aI-1
aI-1
aI-1
aI-1
aI-1
aI29
aI29
aI29
aI29
aI29
aI29
aI29
aI29
aI29
aI-1
aI29
aI-1
aI29
aI-1
aI-1
aI29
aI29
aI29
aI29
aI29
aI-1
aI-1
aI-1
aI-1
aI-1
aI-1
aI-1
aI-1
aI-1
aI-1
aI-1
aI-1
aI-1
aI30
aI30
aI30
aI30
aI30
aI30
aI30
aI30
aI30
aI30
aI30
aI30
aI30
aI30
aI30
aI30
aI30
aI30
aI30
aI30
aI30
aI17
aI17
aI17
aI17
aI17
aI17
aI17
aI17
aI17
aI17
aI17
aI17
aI17
aI17
aI17
aI17
aI17
aI-1
aI-1
aI-1
aI-1
aI-1
aI-1
aI-1
aI-1
aI17
aI17
aI-1
aI-1
aI-1
aI-1
aI-1
aI-1
aI-1
aI31
aI31
aI32
aI32
aI32
aI33
aI33
aI33
aI33
aI33
aI33
aI33
aI33
aI33
aI34
aI34
aI34
aI11
aI12
aI12
aI12
aI35
aI35
aI35
aI3
aI3
aI3
aI28
aI28
aI-1
aI-1
aI-1
aI-1
aI-1
aI-1
aI-1
aI31
aI31
aI31
aI31
aI1
aI1
aI27
aI7
aI7
aI7
aI7
aI7
aI-1
aI-1
aI-1
aI17
aI17
aI-1
aI-1
aI-1
aI-1
aI-1
aI-1
aI-1
aI-1
aI-1
aI-1
aI-1
aI-1
aI-1
aI-1
aI-1
aI-1
aI-1
aI-1
aI-1
aI-1
aI-1
aI-1
aI-1
aI-1
aI-1
aI-1
aI-1
aI-1
aI-1
aI-1
aI-1
aI-1
aI-1
aI-1
aI36
aI36
aI36
aI36
aI17
aI17
aI17
aI17
aI17
aI17
aI16
aI16
aI15
aI15
aI14
aI14
aI-1
aI-1
aI-1
aI-1
aI-1
aI-1
aI-1
aI-1
aI-1
aI-1
aI-1
aI-1
aI-1
aI-1
aI-1
aI-1
aI-1
aI28
aI28
aI28
aI23
aI27
aI27
aI26
aI23
aI23
aI23
aI23
aI23
aI23
aI23
aI23
aI23
aI24
aI24
aI24
aI23
aI0
aI1
aI1
aI0
aI23
aI23
aI23
aI37
aI24
aI-1
aI-1
aI-1
aI20
aI20
aI12
aI12
aI13
aI13
aI38
aI25
aI25
aI39
aI26
aI25
aI24
aI24
aI9
aI40
aI25
aI25
aI41
aI25
aI42
aI26
aI26
aI43
aI27
aI44
aI28
aI34
aI17
aI17
aI17
aI17
aI16
aI16
aI16
aI16
aI16
aI16
aI16
aI45
aI28
aI27
aI46
aI28
aI28
aI28
aI27
aI27
aI8
aI47
aI27
aI27
aI27
aI6
aI6
aI48
aI27
aI27
aI27
aI27
aI6
aI6
aI6
aI6
aI49
aI28
aI28
aI28
aI27
aI27
aI27
aI5
aI5
aI50
aI27
aI37
aI51
aI38
aI52
aI38
aI53
aI29
aI29
aI54
aI30
aI30
aI55
aI-1
aI-1
aI-1
aI-1
aI56
aI7
aI31
aI57
aI57
aI57
aI40
aI40
aI-1
aI17
aI16
aI16
aI58
aI33
aI8
aI59
aI60
aI35
aI61
aI36
aI36
aI11
aI62
aI37
aI37
aI63
aI38
aI37
aI37
aI37
aI36
aI36
aI64
aI37
aI37
aI37
aI10
aI65
aI63
aI66
aI63
aI32
aI32
aI0
aI0
aI0
aI0
aI0
aI0
aI0
aI0
aI0
aI51
aI0
aI0
aI52
aI52
aI52
aI-1
aI-1
aI-1
aI-1
aI-1
aI-1
aI-1
aI67
aI38
aI38
aI-1
aI-1
aI38
aI38
aI38
aI-1
aI-1
aI-1
aI-1
aI-1
aI-1
aI-1
aI-1
aI-1
aI-1
aI-1
aI-1
aI-1
aI-1
aI-1
aI-1
aI-1
aI-1
aI-1
aI-1
aI-1
aI-1
aI-1
aI-1
aI-1
aI-1
aI-1
aI-1
aI-1
aI-1
aI-1
aI-1
aI-1
aI-1
aI-1
aI26
aI1
aI1
aI1
aI68
aI38
aI69
aI-1
aI-1
aI-1
aI-1
aI-1
aI-1
aI-1
aI-1
aI-1
aI39
aI39
aI14
aI14
aI40
aI40
aI40
aI40
aI23
aI70
aI53
aI-1
aI-1
aI-1
aI-1
aI71
aI40
aI40
aI40
aI72
aI41
aI73
aI42
aI42
aI74
aI57
aI43
aI43
aI18
aI18
aI18
aI18
aI75
aI44
aI44
aI18
aI18
aI19
aI76
aI43
aI10
aI77
aI44
aI78
aI45
aI79
aI46
aI45
aI80
aI46
aI69
aI68
aI15
aI81
aI46
aI46
aI82
aI79
aI79
aI48
aI23
aI54
aI83
aI47
aI17
aI17
aI84
aI19
aI19
aI-1
aI-1
aI-1
aI85
aI84
aI86
aI59
aI87
aI80
aI80
aI80
aI88
aI52
aI52
aI89
aI72
aI72
aI90
aI54
aI54
aI91
aI55
aI92
aI56
aI56
aI93
aI57
aI94
aI58
aI-1
aI-1
aI-1
aI-1
aI95
aI59
aI96
aI60
aI60
aI56
aI97
aI61
aI61
aI61
aI61
aI25
aI-1
aI-1
aI-1
aI-1
aI58
aI-1
aI-1
aI-1
aI-1
aI-1
aI-1
aI-1
aI-1
aI-1
aI-1
aI50
aI51
aI51
aI52
aI52
aI-1
aI-1
aI-1
aI-1
aI-1
aI-1
aI-1
aI-1
aI-1
aI-1
aI-1
aI-1
aI-1
aI-1
aI-1
aI-1
aI-1
aI-1
aI-1
aI-1
aI-1
aI-1
aI44
aI-1
aI-1
aI-1
aI-1
aI98
aI75
aI75
aI75
aI75
aI52
aI99
aI76
aI75
aI75
aI51
aI52
aI75
aI74
aI74
aI75
aI52
aI52
aI52
aI15
aI51
aI37
aI37
aI37
aI55
aI61
aI69
aI69
aI68
aI68
aI39
aI52
aI53
aI39
aI7
aI8
aI9
aI100
aI91
aI60
aI75
aI75
aI59
aI75
aI58
aI74
aI-1
aI-1
aI-1
aI101
aI73
aI48
aI-1
aI-1
aI-1
aI-1
aI-1
aI-1
aI-1
aI-1
aI-1
aI-1
aI-1
aI-1
aI-1
aI-1
aI-1
aI-1
aI-1
aI-1
aI-1
aI-1
aI-1
aI-1
aI-1
aI-1
aI-1
aI-1
aI-1
aI-1
aI-1
aI-1
aI-1
aI-1
aI-1
aI-1
aI-1
aI-1
aI-1
aI-1
aI-1
aI-1
aI-1
aI-1
aI-1
aI-1
aI-1
aI-1
aI-1
aI-1
aI-1
aI-1
aI-1
aI-1
aI-1
aI-1
aI2
aI102
aI72
aI72
aI2
aI1
aI1
aI14
a.