(lp0
I-1
aI-1
aI-1
aI-1
aI-1
aI-1
aI-1
aI-1
aI-1
aI-1
aI-1
aI-1
aI-1
aI-1
aI-1
aI-1
aI-1
aI-1
aI-1
aI-1
aI-1
aI-1
aI-1
aI-1
aI-1
aI-1
aI-1
aI-1
aI-1
aI-1
aI-1
aI-1
aI-1
aI-1
aI-1
aI-1
aI-1
aI-1
aI-1
aI-1
aI-1
aI-1
aI-1
aI-1
aI-1
aI-1
aI-1
aI-1
aI-1
aI0
aI0
aI0
aI0
aI0
aI1
aI1
aI2
aI2
aI3
aI3
aI3
aI3
aI3
aI4
aI4
aI4
aI5
aI5
aI5
aI6
aI6
aI6
aI7
aI7
aI-1
aI8
aI8
aI8
aI8
aI8
aI9
aI9
aI9
aI10
aI10
aI10
aI10
aI10
aI10
aI10
aI10
aI10
aI10
aI10
aI10
aI10
aI11
aI11
aI11
aI11
aI12
aI12
aI12
aI12
aI-1
aI-1
aI-1
aI4
aI4
aI5
aI5
aI13
aI13
aI13
aI13
aI13
aI13
aI13
aI13
aI13
aI14
aI-1
aI-1
aI-1
aI-1
aI15
aI15
aI-1
aI-1
aI-1
aI-1
aI16
aI16
aI16
aI16
aI16
aI10
aI17
aI17
aI17
aI17
aI17
aI17
aI17
aI17
aI17
aI17
aI17
aI17
aI17
aI18
aI18
aI18
aI18
aI18
aI19
aI19
aI19
aI20
aI20
aI20
aI20
aI-1
aI-1
aI-1
aI-1
aI-1
aI-1
aI-1
aI-1
aI-1
aI-1
aI-1
aI-1
aI-1
aI-1
aI21
aI-1
aI22
aI22
aI22
aI22
aI23
aI23
aI13
aI13
aI13
aI14
aI14
aI-1
aI-1
aI-1
aI-1
aI-1
aI-1
aI-1
aI-1
aI-1
aI-1
aI-1
aI-1
aI-1
aI0
aI0
aI0
aI0
aI0
aI0
aI24
aI24
aI-1
aI-1
aI-1
aI-1
aI-1
aI25
aI25
aI25
aI25
aI25
aI25
aI25
aI25
aI25
aI25
aI25
aI25
aI26
aI26
aI26
aI27
aI27
aI27
aI27
aI27
aI27
aI27
aI2
aI2
aI3
aI3
aI3
aI3
aI3
aI3
aI3
aI3
aI3
aI3
aI3
aI3
aI3
aI3
aI3
aI3
aI3
aI3
aI3
aI3
aI28
aI28
aI28
aI-1
aI-1
aI-1
aI-1
aI-1
aI-1
aI-1
aI29
aI29
aI29
aI29
aI29
aI29
aI29
aI29
aI29
aI-1
aI29
aI-1
aI29
aI-1
aI-1
aI29
aI29
aI29
aI29
aI29
aI-1
aI-1
aI-1
aI-1
aI-1
aI-1
aI-1
aI-1
aI-1
aI-1
aI-1
aI-1
aI-1
aI30
aI30
aI30
aI30
aI30
aI30
aI30
aI30
aI30
aI30
aI30
aI30
aI30
aI30
aI30
aI30
aI30
aI30
aI30
aI30
aI30
aI17
aI17
aI17
aI17
aI17
aI17
aI17
aI17
aI17
aI17
aI17
aI17
aI17
aI17
aI17
aI17
aI17
aI-1
aI-1
aI-1
aI-1
aI-1
aI-1
aI-1
aI-1
aI17
aI17
aI-1
aI-1
aI-1
aI-1
aI-1
aI-1
aI-1
aI31
aI31
aI32
aI32
aI32
aI33
aI33
aI33
aI33
aI33
aI33
aI33
aI33
aI33
aI34
aI34
aI34
aI11
aI12
aI12
aI12
aI35
aI35
aI35
aI3
aI3
aI3
aI28
aI28
aI-1
aI-1
aI-1
aI-1
aI-1
aI-1
aI-1
aI31
aI31
aI31
aI31
aI1
aI1
aI27
aI7
aI7
aI7
aI7
aI7
aI-1
aI-1
aI-1
aI17
aI17
aI-1
aI-1
aI-1
aI-1
aI-1
aI-1
aI-1
aI-1
aI-1
aI-1
aI-1
aI-1
aI-1
aI-1
aI-1
aI-1
aI-1
aI-1
aI-1
aI-1
aI-1
aI-1
aI-1
aI-1
aI-1
aI-1
aI-1
aI-1
aI-1
aI-1
aI-1
aI-1
aI-1
aI-1
aI36
aI36
aI36
aI36
aI17
aI17
aI17
aI17
aI17
aI17
aI16
aI16
aI15
aI15
aI14
aI14
aI-1
aI-1
aI-1
aI-1
aI-1
aI-1
aI-1
aI-1
aI-1
aI-1
aI-1
aI-1
aI-1
aI-1
aI-1
aI-1
aI-1
aI28
aI28
aI28
aI23
aI27
aI27
aI26
aI23
aI23
aI23
aI23
aI23
aI23
aI23
aI23
aI23
aI24
aI24
aI24
aI23
aI0
aI1
aI1
aI0
aI23
aI23
aI23
aI37
aI24
aI-1
aI-1
aI-1
aI20
aI20
aI12
aI12
aI13
aI13
aI38
aI25
aI25
aI39
aI26
aI25
aI24
aI24
aI9
aI40
aI25
aI25
aI41
aI25
aI42
aI26
aI26
aI43
aI27
aI44
aI28
aI34
aI17
aI17
aI17
aI17
aI16
aI16
aI16
aI16
aI16
aI16
aI16
aI45
aI28
aI27
aI46
aI28
aI28
aI28
aI27
aI27
aI8
aI47
aI27
aI27
aI27
aI6
aI6
aI48
aI27
aI27
aI27
aI27
aI6
aI6
aI6
aI6
aI49
aI28
aI28
aI28
aI27
aI27
aI27
aI5
aI5
aI50
aI27
aI37
aI51
aI38
aI52
aI38
aI53
aI29
aI29
aI54
aI30
aI30
aI55
aI-1
aI-1
aI-1
aI-1
aI56
aI7
aI31
aI57
aI57
aI57
aI40
aI40
aI-1
aI17
aI16
aI16
aI58
aI33
aI8
aI59
aI60
aI35
aI61
aI36
aI36
aI11
aI62
aI37
aI37
aI63
aI38
aI37
aI37
aI37
aI36
aI36
aI64
aI37
aI37
aI37
aI10
aI65
aI63
aI66
aI63
aI32
aI32
aI0
aI0
aI0
aI0
aI0
aI0
aI0
aI0
aI0
aI51
aI0
aI0
aI52
aI52
aI52
aI-1
aI-1
aI-1
aI-1
aI-1
aI-1
aI-1
aI67
aI38
aI38
aI-1
aI-1
aI38
aI38
aI38
aI-1
aI-1
aI-1
aI-1
aI-1
aI-1
aI-1
aI-1
aI-1
aI-1
aI-1
aI-1
aI-1
aI-1
aI-1
aI-1
aI-1
aI-1
aI-1
aI-1
aI-1
aI-1
aI-1
aI-1
aI-1
aI-1
aI-1
aI-1
aI-1
aI-1
aI-1
aI-1
aI-1
aI-1
aI-1
aI26
aI1
aI1
aI1
aI68
aI38
aI69
aI-1
aI-1
aI-1
aI-1
aI-1
aI-1
aI-1
aI-1
aI-1
aI39
aI39
aI14
aI14
aI40
aI40
aI40
aI40
aI23
aI70
aI53
aI-1
aI-1
aI-1
aI-1
aI71
aI40
aI40
aI40
aI72
aI41
aI73
aI42
aI42
aI74
aI57
aI43
aI43
aI18
aI18
aI18
aI18
aI75
aI44
aI44
aI18
aI18
aI19
aI76
aI43
aI10
aI77
aI44
aI78
aI45
aI79
aI46
aI45
aI80
aI46
aI69
aI68
aI15
aI81
aI46
aI46
aI82
aI79
aI79
aI48
aI23
aI54
aI83
aI47
aI17
aI17
aI84
aI19
aI19
aI-1
aI-1
aI-1
aI85
aI84
aI86
aI59
aI87
aI80
aI80
aI80
aI88
aI52
aI52
aI89
aI72
aI72
aI90
aI54
aI54
aI91
aI55
aI92
aI56
aI56
aI93
aI57
aI94
aI58
aI-1
aI-1
aI-1
aI-1
aI95
aI59
aI96
aI60
aI60
aI56
aI97
aI61
aI61
aI61
aI61
aI25
aI-1
aI-1
aI-1
aI-1
aI58
aI-1
aI-1
aI-1
aI-1
aI-1
aI-1
aI-1
aI-1
aI-1
aI-1
aI50
aI51
aI51
aI52
aI52
aI-1
aI-1
aI-1
aI-1
aI-1
aI-1
aI-1
aI-1
aI-1
aI-1
aI-1
aI-1
aI-1
aI-1
aI-1
aI-1
aI-1
aI-1
aI-1
aI-1
aI-1
aI-1
aI44
aI-1
aI-1
aI-1
aI-1
aI98
aI75
aI75
aI75
aI75
aI52
aI99
aI76
aI75
aI75
aI51
aI52
aI75
aI74
aI74
aI75
aI52
aI52
aI52
aI15
aI51
aI37
aI37
aI37
aI55
aI61
aI69
aI69
aI68
aI68
aI39
aI52
aI53
aI39
aI7
aI8
aI9
aI100
aI91
aI60
aI75
aI75
aI59
aI75
aI58
aI74
aI-1
aI-1
aI-1
aI101
aI73
aI48
aI-1
aI-1
aI-1
aI-1
aI-1
aI-1
aI-1
aI-1
aI-1
aI-1
aI-1
aI-1
aI-1
aI-1
aI-1
aI-1
aI-1
aI-1
aI-1
aI-1
aI-1
aI-1
aI-1
aI-1
aI-1
aI-1
aI-1
aI-1
aI-1
aI-1
aI-1
aI-1
aI-1
aI-1
aI-1
aI-1
aI-1
aI-1
aI-1
aI-1
aI-1
aI-1
aI-1
aI-1
aI-1
aI-1
aI-1
aI-1
aI-1
aI-1
aI-1
aI-1
aI-1
aI-1
aI2
aI102
aI72
aI72
aI2
aI1
aI1
aI14
aI-1
aI103
aI96
aI53
aI27
aI104
aI47
aI64
aI-1
aI-1
aI-1
aI105
aI89
aI47
aI72
aI87
aI36
aI36
aI61
aI31
aI56
aI106
aI95
aI19
aI45
aI40
aI15
aI40
aI42
aI42
aI69
aI107
aI71
aI6
aI33
aI-1
aI-1
aI-1
aI-1
aI-1
aI-1
aI108
aI76
aI73
aI105
aI105
aI42
aI42
aI42
aI42
aI93
aI93
aI94
aI31
aI82
aI82
aI30
aI30
aI-1
aI-1
aI-1
aI-1
aI-1
aI-1
aI109
aI42
aI35
aI64
aI64
aI110
aI42
aI32
aI-1
aI-1
aI-1
aI-1
aI-1
aI-1
aI-1
aI3
aI3
aI3
aI111
aI43
aI43
aI5
aI5
aI112
aI44
aI44
aI113
aI45
aI45
aI45
aI114
aI46
aI46
aI46
aI46
aI22
aI22
aI115
aI47
aI47
aI47
aI116
aI48
aI48
aI48
aI22
aI117
aI116
aI116
aI-1
aI-1
aI-1
aI-1
aI-1
aI-1
aI-1
aI-1
aI-1
aI-1
aI-1
aI118
aI79
aI119
aI105
aI120
aI80
aI121
aI81
aI81
aI98
aI51
aI68
aI50
aI50
aI50
aI45
aI45
aI122
aI82
aI123
aI51
aI82
aI44
aI58
aI58
aI26
aI124
aI81
aI81
aI106
aI106
aI-1
aI106
aI-1
aI-1
aI-1
aI-1
aI-1
aI-1
aI-1
aI-1
aI-1
aI-1
aI-1
aI-1
aI-1
aI-1
aI-1
aI-1
aI-1
aI-1
aI-1
aI-1
aI-1
aI-1
aI-1
aI-1
aI-1
aI-1
aI-1
aI-1
aI-1
aI-1
aI-1
aI-1
aI-1
aI-1
aI-1
aI-1
aI-1
aI-1
aI-1
aI-1
aI-1
aI-1
aI-1
aI-1
aI-1
aI-1
aI-1
aI-1
aI-1
aI-1
aI-1
aI-1
aI-1
aI-1
aI-1
aI-1
aI-1
aI-1
aI-1
aI-1
aI-1
aI-1
aI-1
aI-1
aI-1
aI-1
aI-1
aI-1
aI-1
aI-1
aI-1
aI-1
aI-1
aI-1
aI-1
aI-1
aI-1
aI-1
aI-1
aI-1
aI-1
aI-1
aI-1
aI-1
aI-1
aI-1
aI-1
aI-1
aI-1
aI-1
aI-1
aI-1
aI-1
aI-1
aI-1
aI-1
aI-1
aI-1
aI-1
aI-1
aI-1
aI-1
aI-1
aI-1
aI-1
aI-1
aI-1
aI-1
aI-1
aI-1
aI-1
aI-1
aI-1
aI-1
aI-1
aI-1
aI-1
aI-1
aI-1
aI-1
aI-1
aI-1
aI-1
aI-1
aI-1
aI-1
aI-1
aI-1
aI-1
aI-1
aI-1
aI30
aI30
aI30
aI53
aI125
aI49
aI126
aI51
aI-1
aI-1
aI-1
aI-1
aI-1
aI-1
aI-1
aI57
aI57
aI87
aI51
aI65
aI73
aI73
aI55
aI49
aI1
aI-1
aI-1
aI-1
aI-1
aI-1
aI-1
aI32
aI64
aI103
aI102
aI12
aI21
aI52
aI37
aI127
aI68
aI52
aI128
aI54
aI129
aI28
aI28
aI28
aI21
aI46
aI130
aI28
aI28
aI131
aI29
aI29
aI29
aI29
aI132
aI30
aI133
aI31
aI134
aI32
aI32
aI135
aI33
aI33
aI33
aI33
aI-1
aI-1
aI-1
aI-1
aI-1
aI-1
aI3
aI3
aI3
aI3
aI3
aI3
aI3
aI3
aI3
aI3
aI30
aI31
aI31
aI25
aI25
aI12
aI26
aI12
aI12
aI136
aI34
aI34
aI34
aI34
aI137
aI35
aI35
aI138
aI136
aI139
aI67
aI67
aI140
aI139
aI139
aI90
aI1
aI1
aI-1
aI-1
aI-1
aI-1
aI-1
aI-1
aI3
aI3
aI35
aI141
aI15
aI57
aI32
aI17
aI68
aI-1
aI-1
aI-1
aI-1
aI-1
aI-1
aI-1
aI-1
aI-1
aI-1
aI-1
aI-1
aI-1
aI-1
aI-1
aI-1
aI-1
aI-1
aI-1
aI-1
aI-1
aI-1
aI-1
aI-1
aI-1
aI-1
aI-1
aI-1
aI-1
aI-1
aI-1
aI-1
aI-1
aI-1
aI-1
aI-1
aI-1
aI-1
aI-1
aI-1
aI-1
aI-1
aI-1
aI-1
aI-1
aI-1
aI-1
aI-1
aI-1
aI-1
aI63
aI63
aI17
aI142
aI110
aI18
aI20
aI20
aI20
aI20
aI20
aI143
aI140
aI140
aI125
aI17
aI93
aI50
aI71
aI77
aI19
aI38
aI56
aI11
aI55
aI-1
aI-1
aI-1
aI25
aI65
aI65
aI144
aI122
aI105
aI12
aI66
aI66
aI19
aI145
aI97
aI146
aI55
aI81
aI147
aI31
aI-1
aI-1
aI-1
aI-1
aI148
aI30
aI149
aI31
aI150
aI32
aI32
aI151
aI33
aI72
aI16
aI30
aI15
aI55
aI-1
aI-1
aI-1
aI-1
aI-1
aI-1
aI-1
aI-1
aI-1
aI-1
aI-1
aI-1
aI-1
aI-1
aI-1
aI-1
aI-1
aI-1
aI-1
aI-1
aI-1
aI-1
aI-1
aI-1
aI-1
aI-1
aI-1
aI-1
aI-1
aI-1
aI-1
aI152
aI27
aI27
aI153
aI28
aI2
aI2
aI17
aI4
aI4
aI154
aI29
aI155
aI-1
aI-1
aI-1
aI-1
aI156
aI31
aI10
aI-1
aI-1
aI-1
aI-1
aI-1
aI27
aI28
aI28
aI157
aI32
aI32
aI29
aI30
aI30
aI-1
aI-1
aI-1
aI-1
aI-1
aI-1
aI-1
aI158
aI33
aI33
aI33
aI159
aI34
aI34
aI19
aI19
aI19
aI2
aI160
aI35
aI4
aI161
aI36
aI36
aI36
aI4
aI36
aI162
aI37
aI37
aI36
aI36
aI163
aI38
aI38
aI164
aI39
aI22
aI22
aI165
aI40
aI-1
aI-1
aI-1
aI-1
aI27
aI28
aI28
aI2
aI2
aI2
aI166
aI41
aI41
aI3
aI167
aI42
aI168
aI43
aI-1
aI-1
aI-1
aI-1
aI-1
aI27
aI27
aI28
aI32
aI32
aI32
aI169
aI44
aI44
aI-1
aI-1
aI-1
aI-1
aI-1
aI33
aI33
aI34
aI19
aI19
aI19
aI19
aI35
aI35
aI41
aI170
aI45
aI171
aI46
aI46
aI69
aI62
aI62
aI39
aI41
aI44
aI172
aI43
aI3
aI3
aI3
aI4
aI4
aI4
aI173
aI67
aI-1
aI-1
aI-1
aI174
aI47
aI47
aI65
aI72
aI120
aI175
aI48
aI48
aI48
aI48
aI48
aI16
aI176
aI73
aI74
aI177
aI156
aI71
aI178
aI51
aI110
aI79
aI3
aI77
aI179
aI151
aI151
aI115
aI71
aI46
aI37
aI66
aI66
aI42
aI144
aI95
aI-1
aI-1
aI-1
aI-1
aI19
aI77
aI19
aI95
aI95
aI7
aI109
aI109
aI109
aI60
aI34
aI34
aI35
aI35
aI35
aI35
aI97
aI168
aI75
aI180
aI177
aI177
aI177
aI125
aI125
aI125
aI124
aI123
aI124
aI-1
aI-1
aI-1
aI-1
aI146
aI146
aI181
aI147
aI147
aI147
aI182
aI45
aI77
aI77
aI12
aI14
aI183
aI116
aI184
aI44
aI45
aI185
aI95
aI116
aI116
aI32
aI32
aI186
aI45
aI-1
aI-1
aI-1
aI-1
aI32
aI187
aI172
aI130
aI155
aI-1
aI-1
aI-1
aI-1
aI45
aI45
aI-1
aI-1
aI45
aI-1
aI-1
aI-1
aI-1
aI-1
aI-1
aI-1
aI-1
aI-1
aI-1
aI-1
aI-1
aI-1
aI-1
aI-1
aI-1
aI-1
aI-1
aI-1
aI-1
aI-1
aI-1
aI-1
aI-1
aI-1
aI-1
aI-1
aI-1
aI-1
aI-1
aI-1
aI-1
aI-1
aI-1
aI-1
aI-1
aI-1
aI-1
aI-1
aI-1
aI-1
aI-1
aI188
aI125
aI125
aI-1
aI-1
aI189
aI171
aI169
aI85
aI107
aI107
aI108
aI24
aI14
aI30
aI29
aI-1
aI-1
aI-1
aI87
aI81
aI162
aI143
aI125
aI171
aI127
aI38
aI190
aI46
aI80
aI48
aI95
aI16
aI6
aI23
aI117
aI63
aI63
aI110
aI191
aI94
aI192
aI137
aI92
aI26
aI93
aI38
aI-1
aI-1
aI-1
aI-1
aI-1
aI-1
aI-1
aI39
aI157
aI157
aI38
aI156
aI117
aI173
aI75
aI90
aI72
aI28
aI193
aI41
aI15
aI2
aI2
aI3
aI-1
aI-1
aI-1
aI6
aI29
aI29
aI30
aI30
aI30
aI38
aI38
aI38
aI194
aI42
aI31
aI195
aI43
aI196
aI-1
aI-1
aI-1
aI-1
aI-1
aI-1
aI-1
aI0
aI75
aI4
aI197
aI195
aI100
aI152
aI165
aI165
aI8
aI-1
aI-1
aI-1
aI-1
aI-1
aI2
aI2
aI127
aI148
aI1
aI2
aI2
aI2
aI198
aI171
aI170
aI162
aI33
aI158
aI128
aI131
aI130
aI11
aI9
aI199
aI41
aI200
aI42
aI201
aI43
aI43
aI114
aI114
aI202
aI43
aI168
aI168
aI183
aI183
aI183
aI200
aI42
aI167
aI198
aI41
aI68
aI68
aI68
aI100
aI68
aI3
aI67
aI-1
aI-1
aI-1
aI10
aI135
aI135
aI9
aI134
aI102
aI164
aI-1
aI-1
aI-1
aI-1
aI-1
aI-1
aI-1
aI-1
aI-1
aI-1
aI-1
aI-1
aI-1
aI-1
aI-1
aI-1
aI-1
aI-1
aI-1
aI-1
aI-1
aI-1
aI-1
aI-1
aI-1
aI-1
aI-1
aI-1
aI-1
aI-1
aI-1
aI-1
aI-1
aI-1
aI-1
aI-1
aI-1
aI-1
aI-1
aI-1
aI-1
aI-1
aI-1
aI-1
aI-1
aI-1
aI-1
aI-1
aI-1
aI-1
aI-1
aI-1
aI-1
aI-1
aI-1
aI-1
aI-1
aI-1
aI-1
aI-1
aI-1
aI-1
aI-1
aI-1
aI-1
aI-1
aI-1
aI-1
aI-1
aI-1
aI-1
aI-1
aI-1
aI-1
aI-1
aI-1
aI-1
aI-1
aI-1
aI-1
aI-1
aI46
aI144
aI-1
aI-1
aI-1
aI-1
aI-1
aI203
aI26
aI1
aI86
aI204
aI118
aI59
aI85
aI67
aI-1
aI-1
aI-1
aI205
aI90
aI134
aI206
aI169
aI207
aI141
aI165
aI208
aI113
aI209
aI29
aI29
aI210
aI191
aI133
aI191
aI115
aI115
aI203
aI211
aI102
aI36
aI139
aI32
aI166
aI166
aI166
aI167
aI167
aI105
aI34
aI127
aI22
aI25
aI25
aI25
aI212
aI87
aI87
aI213
aI90
aI89
aI214
aI33
aI33
aI215
aI69
aI69
aI34
aI68
aI68
aI68
aI33
aI170
aI138
aI138
aI203
aI201
aI32
aI99
aI216
aI172
aI171
aI0
aI28
a.